; Function Attrs: nounwind uwtable
define dso_local void @Curl_bufcp_free(ptr noundef captures(none) %0) local_unnamed_addr #2 {
  %2 = load ptr, ptr %0, align 8
  %.not5.i = icmp eq ptr %2, null
  br i1 %.not5.i, label %chunk_list_free.exit, label %.lr.ph.i

.lr.ph.i:                                         ; preds = %1, %.lr.ph.i
  %3 = phi ptr [ %6, %.lr.ph.i ], [ %2, %1 ]
  %4 = load ptr, ptr %3, align 8
  store ptr %4, ptr %0, align 8
  %5 = load ptr, ptr @Curl_cfree, align 8
  tail call void %5(ptr noundef nonnull %3) #11
  %6 = load ptr, ptr %0, align 8
  %.not.i = icmp eq ptr %6, null
  br i1 %.not.i, label %chunk_list_free.exit, label %.lr.ph.i, !llvm.loop !5

chunk_list_free.exit:                             ; preds = %.lr.ph.i, %1
  %7 = getelementptr inbounds nuw i8, ptr %0, i64 16
  store i64 0, ptr %7, align 8
  ret void
}